; Function Attrs: mustprogress nounwind uwtable
define dso_local void @_ZN25cmGlobalGhsMultiGeneratorD0Ev(ptr noundef nonnull align 8 dereferenceable(1840) %0) unnamed_addr #4 align 2 personality ptr @__gxx_personality_v0 {
  store ptr getelementptr inbounds ({ [70 x ptr] }, ptr @_ZTV25cmGlobalGhsMultiGenerator, i64 0, i32 0, i64 2), ptr %0, align 8
  %2 = getelementptr inbounds i8, ptr %0, i64 1816
  %3 = load ptr, ptr %2, align 8
  %.not.i.i.i.i = icmp eq ptr %3, null
  br i1 %.not.i.i.i.i, label %_ZN25cmGlobalGhsMultiGeneratorD2Ev.exit, label %4

4:                                                ; preds = %1
  tail call void @_ZdlPv(ptr noundef nonnull %3) #21
  br label %_ZN25cmGlobalGhsMultiGeneratorD2Ev.exit

_ZN25cmGlobalGhsMultiGeneratorD2Ev.exit:          ; preds = %1, %4
  %5 = getelementptr inbounds i8, ptr %0, i64 1784
  tail call void @_ZNSt7__cxx1112basic_stringIcSt11char_traitsIcESaIcEED1Ev(ptr noundef nonnull align 8 dereferenceable(32) %5) #20
  tail call void @_ZN17cmGlobalGeneratorD2Ev(ptr noundef nonnull align 8 dereferenceable(1778) %0) #20
  tail call void @_ZdlPv(ptr noundef nonnull %0) #21
  ret void
}